target datalayout = "e-m:e-p270:32:32-p271:32:32-p272:64:64-i64:64-i128:128-f80:128-n8:16:32:64-S128"
target triple = "x86_64-pc-linux-gnu"

%struct.mbedtls_md_context_t = type { ptr, ptr, ptr }
%struct.mbedtls_md_info_t = type { i32, i8, i8 }

; Function Attrs: nounwind uwtable
define hidden i32 @mbedtls_md_hmac_reset(ptr noundef %0) #0 {
  %2 = alloca i32, align 4
  %3 = alloca ptr, align 8
  %4 = alloca i32, align 4
  %5 = alloca ptr, align 8
  %6 = alloca i32, align 4
  store ptr %0, ptr %3, align 8, !tbaa !7
  call void @llvm.lifetime.start.p0(i64 4, ptr %4) #9
  store i32 -110, ptr %4, align 4, !tbaa !3
  call void @llvm.lifetime.start.p0(i64 8, ptr %5) #9
  %7 = load ptr, ptr %3, align 8, !tbaa !7
  %8 = icmp eq ptr %7, null
  br i1 %8, label %19, label %9

9:                                                ; preds = %1
  %10 = load ptr, ptr %3, align 8, !tbaa !7
  %11 = getelementptr inbounds nuw %struct.mbedtls_md_context_t, ptr %10, i32 0, i32 0
  %12 = load ptr, ptr %11, align 8, !tbaa !10
  %13 = icmp eq ptr %12, null
  br i1 %13, label %19, label %14

14:                                               ; preds = %9
  %15 = load ptr, ptr %3, align 8, !tbaa !7
  %16 = getelementptr inbounds nuw %struct.mbedtls_md_context_t, ptr %15, i32 0, i32 2
  %17 = load ptr, ptr %16, align 8, !tbaa !16
  %18 = icmp eq ptr %17, null
  br i1 %18, label %19, label %20

19:                                               ; preds = %14, %9, %1
  store i32 -20736, ptr %2, align 4
  store i32 1, ptr %6, align 4
  br label %39

20:                                               ; preds = %14
  %21 = load ptr, ptr %3, align 8, !tbaa !7
  %22 = getelementptr inbounds nuw %struct.mbedtls_md_context_t, ptr %21, i32 0, i32 2
  %23 = load ptr, ptr %22, align 8, !tbaa !16
  store ptr %23, ptr %5, align 8, !tbaa !19
  %24 = load ptr, ptr %3, align 8, !tbaa !7
  %25 = call i32 @mbedtls_md_starts(ptr noundef %24)
  store i32 %25, ptr %4, align 4, !tbaa !3
  %26 = icmp ne i32 %25, 0
  br i1 %26, label %27, label %29

27:                                               ; preds = %20
  %28 = load i32, ptr %4, align 4, !tbaa !3
  store i32 %28, ptr %2, align 4
  store i32 1, ptr %6, align 4
  br label %39

29:                                               ; preds = %20
  %30 = load ptr, ptr %3, align 8, !tbaa !7
  %31 = load ptr, ptr %5, align 8, !tbaa !19
  %32 = load ptr, ptr %3, align 8, !tbaa !7
  %33 = getelementptr inbounds nuw %struct.mbedtls_md_context_t, ptr %32, i32 0, i32 0
  %34 = load ptr, ptr %33, align 8, !tbaa !10
  %35 = getelementptr inbounds nuw %struct.mbedtls_md_info_t, ptr %34, i32 0, i32 2
  %36 = load i8, ptr %35, align 1, !tbaa !17
  %37 = zext i8 %36 to i64
  %38 = call i32 @mbedtls_md_update(ptr noundef %30, ptr noundef %31, i64 noundef %37)
  store i32 %38, ptr %2, align 4
  store i32 1, ptr %6, align 4
  br label %39

39:                                               ; preds = %29, %27, %19
  call void @llvm.lifetime.end.p0(i64 8, ptr %5) #9
  call void @llvm.lifetime.end.p0(i64 4, ptr %4) #9
  %40 = load i32, ptr %2, align 4
  ret i32 %40
}