; Function Attrs: nounwind uwtable
define hidden i32 @mbedtls_md_hmac_reset(ptr noundef %0) local_unnamed_addr #3 {
  %2 = icmp eq ptr %0, null
  br i1 %2, label %18, label %3

3:                                                ; preds = %1
  %4 = load ptr, ptr %0, align 8, !tbaa !3
  %5 = icmp eq ptr %4, null
  br i1 %5, label %18, label %6

6:                                                ; preds = %3
  %7 = getelementptr inbounds nuw i8, ptr %0, i64 16
  %8 = load ptr, ptr %7, align 8, !tbaa !13
  %9 = icmp eq ptr %8, null
  br i1 %9, label %18, label %10

10:                                               ; preds = %6
  %11 = tail call i32 @mbedtls_md_starts(ptr noundef nonnull %0)
  %.not = icmp eq i32 %11, 0
  br i1 %.not, label %12, label %18

12:                                               ; preds = %10
  %13 = load ptr, ptr %0, align 8, !tbaa !3
  %14 = getelementptr inbounds nuw i8, ptr %13, i64 5
  %15 = load i8, ptr %14, align 1, !tbaa !14
  %16 = zext i8 %15 to i64
  %17 = tail call i32 @mbedtls_md_update(ptr noundef nonnull %0, ptr noundef nonnull %8, i64 noundef %16)
  br label %18

18:                                               ; preds = %10, %1, %3, %6, %12
  %.0 = phi i32 [ %17, %12 ], [ -20736, %6 ], [ -20736, %3 ], [ -20736, %1 ], [ %11, %10 ]
  ret i32 %.0
}